; Function Attrs: mustprogress uwtable
define void @_ZNK2cv3dnn14dnn4_v2024122318TextDetectionModel6detectERKNS_11_InputArrayERSt6vectorIS6_INS_6Point_IiEESaIS8_EESaISA_EERS6_IfSaIfEE(ptr noundef nonnull readonly align 8 captures(none) dereferenceable(16) %0, ptr noundef nonnull align 8 dereferenceable(24) %1, ptr noundef nonnull align 8 dereferenceable(24) %2, ptr noundef nonnull align 8 dereferenceable(24) %3) local_unnamed_addr #4 align 2 personality ptr @__gxx_personality_v0 {
  %5 = alloca %"class.std::__cxx11::basic_string", align 8
  %6 = alloca %"class.std::allocator.4", align 1
  %7 = alloca %"class.std::vector.62", align 8
  call void @llvm.lifetime.start.p0(i64 24, ptr nonnull %7) #32
  %8 = load ptr, ptr %0, align 8, !tbaa !51
  %.not.i = icmp eq ptr %8, null
  br i1 %.not.i, label %9, label %_ZN2cv3dnn23TextDetectionModel_Impl4fromERKSt10shared_ptrINS0_14dnn4_v202412235Model4ImplEE.exit

9:                                                ; preds = %4
  call void @llvm.lifetime.start.p0(i64 32, ptr nonnull %5) #32
  call void @llvm.lifetime.start.p0(i64 1, ptr nonnull %6) #32
  call void @_ZNSt7__cxx1112basic_stringIcSt11char_traitsIcESaIcEEC2EPKcRKS3_(ptr noundef nonnull align 8 dereferenceable(32) %5, ptr noundef nonnull @.str.17, ptr noundef nonnull align 1 dereferenceable(1) %6)
  invoke void @_ZN2cv5errorEiRKNSt7__cxx1112basic_stringIcSt11char_traitsIcESaIcEEEPKcS9_i(i32 noundef -215, ptr noundef nonnull align 8 dereferenceable(32) %5, ptr noundef nonnull @__func__._ZN2cv3dnn25TextRecognitionModel_Impl4fromERKSt10shared_ptrINS0_14dnn4_v202412235Model4ImplEE, ptr noundef nonnull @.str.3, i32 noundef 1056) #33
          to label %10 unwind label %11

10:                                               ; preds = %9
  unreachable

11:                                               ; preds = %9
  %12 = landingpad { ptr, i32 }
          cleanup
  %13 = load ptr, ptr %5, align 8, !tbaa !70
  %14 = getelementptr inbounds nuw i8, ptr %5, i64 16
  %15 = icmp eq ptr %13, %14
  br i1 %15, label %_ZNKSt7__cxx1112basic_stringIcSt11char_traitsIcESaIcEE11_M_is_localEv.exit.thread.i.i.i, label %_ZNKSt7__cxx1112basic_stringIcSt11char_traitsIcESaIcEE11_M_is_localEv.exit.i.i.i

_ZNKSt7__cxx1112basic_stringIcSt11char_traitsIcESaIcEE11_M_is_localEv.exit.thread.i.i.i: ; preds = %11
  %16 = getelementptr inbounds nuw i8, ptr %5, i64 8
  %17 = load i64, ptr %16, align 8, !tbaa !66
  %18 = icmp ult i64 %17, 16
  call void @llvm.assume(i1 %18)
  br label %_ZNSt7__cxx1112basic_stringIcSt11char_traitsIcESaIcEED2Ev.exit.i

_ZNKSt7__cxx1112basic_stringIcSt11char_traitsIcESaIcEE11_M_is_localEv.exit.i.i.i: ; preds = %11
  call void @_ZdlPv(ptr noundef %13) #31
  br label %_ZNSt7__cxx1112basic_stringIcSt11char_traitsIcESaIcEED2Ev.exit.i

common.resume:                                    ; preds = %31, %_ZNSt7__cxx1112basic_stringIcSt11char_traitsIcESaIcEED2Ev.exit.i
  %common.resume.op = phi { ptr, i32 } [ %12, %_ZNSt7__cxx1112basic_stringIcSt11char_traitsIcESaIcEED2Ev.exit.i ], [ %32, %31 ]
  resume { ptr, i32 } %common.resume.op

_ZNSt7__cxx1112basic_stringIcSt11char_traitsIcESaIcEED2Ev.exit.i: ; preds = %_ZNKSt7__cxx1112basic_stringIcSt11char_traitsIcESaIcEE11_M_is_localEv.exit.i.i.i, %_ZNKSt7__cxx1112basic_stringIcSt11char_traitsIcESaIcEE11_M_is_localEv.exit.thread.i.i.i
  call void @llvm.lifetime.end.p0(i64 1, ptr nonnull %6) #32
  call void @llvm.lifetime.end.p0(i64 32, ptr nonnull %5) #32
  br label %common.resume

_ZN2cv3dnn23TextDetectionModel_Impl4fromERKSt10shared_ptrINS0_14dnn4_v202412235Model4ImplEE.exit: ; preds = %4
  %19 = load ptr, ptr %8, align 8, !tbaa !15
  %20 = getelementptr inbounds nuw i8, ptr %19, i64 56
  %21 = load ptr, ptr %20, align 8
  call void %21(ptr dead_on_unwind nonnull writable sret(%"class.std::vector.62") align 8 %7, ptr noundef nonnull align 8 dereferenceable(224) %8, ptr noundef nonnull align 8 dereferenceable(24) %1, ptr noundef nonnull align 8 dereferenceable(24) %3)
  invoke fastcc void @_ZN2cv3dnnL5to32sERKSt6vectorIS1_INS_6Point_IfEESaIS3_EESaIS5_EERS1_IS1_INS2_IiEESaISA_EESaISC_EE(ptr noundef nonnull align 8 dereferenceable(24) %7, ptr noundef nonnull align 8 dereferenceable(24) %2)
          to label %22 unwind label %31

22:                                               ; preds = %_ZN2cv3dnn23TextDetectionModel_Impl4fromERKSt10shared_ptrINS0_14dnn4_v202412235Model4ImplEE.exit
  %23 = load ptr, ptr %7, align 8, !tbaa !422
  %24 = getelementptr inbounds nuw i8, ptr %7, i64 8
  %25 = load ptr, ptr %24, align 8, !tbaa !425
  %.not4.i.i.i.i = icmp eq ptr %23, %25
  br i1 %.not4.i.i.i.i, label %_ZSt8_DestroyIPSt6vectorIN2cv6Point_IfEESaIS3_EES5_EvT_S7_RSaIT0_E.exit.i, label %.lr.ph.i.i.i.i

.lr.ph.i.i.i.i:                                   ; preds = %22, %_ZSt8_DestroyISt6vectorIN2cv6Point_IfEESaIS3_EEEvPT_.exit.i.i.i.i
  %.05.i.i.i.i = phi ptr [ %28, %_ZSt8_DestroyISt6vectorIN2cv6Point_IfEESaIS3_EEEvPT_.exit.i.i.i.i ], [ %23, %22 ]
  %26 = load ptr, ptr %.05.i.i.i.i, align 8, !tbaa !426
  %.not.i.i.i.i.i.i.i.i = icmp eq ptr %26, null
  br i1 %.not.i.i.i.i.i.i.i.i, label %_ZSt8_DestroyISt6vectorIN2cv6Point_IfEESaIS3_EEEvPT_.exit.i.i.i.i, label %27

27:                                               ; preds = %.lr.ph.i.i.i.i
  call void @_ZdlPv(ptr noundef nonnull %26) #31
  br label %_ZSt8_DestroyISt6vectorIN2cv6Point_IfEESaIS3_EEEvPT_.exit.i.i.i.i

_ZSt8_DestroyISt6vectorIN2cv6Point_IfEESaIS3_EEEvPT_.exit.i.i.i.i: ; preds = %27, %.lr.ph.i.i.i.i
  %28 = getelementptr inbounds nuw i8, ptr %.05.i.i.i.i, i64 24
  %.not.i.i.i.i = icmp eq ptr %28, %25
  br i1 %.not.i.i.i.i, label %_ZSt8_DestroyIPSt6vectorIN2cv6Point_IfEESaIS3_EES5_EvT_S7_RSaIT0_E.exitthread-pre-split.i, label %.lr.ph.i.i.i.i, !llvm.loop !427

_ZSt8_DestroyIPSt6vectorIN2cv6Point_IfEESaIS3_EES5_EvT_S7_RSaIT0_E.exitthread-pre-split.i: ; preds = %_ZSt8_DestroyISt6vectorIN2cv6Point_IfEESaIS3_EEEvPT_.exit.i.i.i.i
  %.pr.i = load ptr, ptr %7, align 8, !tbaa !422
  br label %_ZSt8_DestroyIPSt6vectorIN2cv6Point_IfEESaIS3_EES5_EvT_S7_RSaIT0_E.exit.i

_ZSt8_DestroyIPSt6vectorIN2cv6Point_IfEESaIS3_EES5_EvT_S7_RSaIT0_E.exit.i: ; preds = %_ZSt8_DestroyIPSt6vectorIN2cv6Point_IfEESaIS3_EES5_EvT_S7_RSaIT0_E.exitthread-pre-split.i, %22
  %29 = phi ptr [ %.pr.i, %_ZSt8_DestroyIPSt6vectorIN2cv6Point_IfEESaIS3_EES5_EvT_S7_RSaIT0_E.exitthread-pre-split.i ], [ %23, %22 ]
  %.not.i.i.i = icmp eq ptr %29, null
  br i1 %.not.i.i.i, label %_ZNSt6vectorIS_IN2cv6Point_IfEESaIS2_EESaIS4_EED2Ev.exit, label %30

30:                                               ; preds = %_ZSt8_DestroyIPSt6vectorIN2cv6Point_IfEESaIS3_EES5_EvT_S7_RSaIT0_E.exit.i
  call void @_ZdlPv(ptr noundef nonnull %29) #31
  br label %_ZNSt6vectorIS_IN2cv6Point_IfEESaIS2_EESaIS4_EED2Ev.exit

_ZNSt6vectorIS_IN2cv6Point_IfEESaIS2_EESaIS4_EED2Ev.exit: ; preds = %_ZSt8_DestroyIPSt6vectorIN2cv6Point_IfEESaIS3_EES5_EvT_S7_RSaIT0_E.exit.i, %30
  call void @llvm.lifetime.end.p0(i64 24, ptr nonnull %7) #32
  ret void

31:                                               ; preds = %_ZN2cv3dnn23TextDetectionModel_Impl4fromERKSt10shared_ptrINS0_14dnn4_v202412235Model4ImplEE.exit
  %32 = landingpad { ptr, i32 }
          cleanup
  call void @_ZNSt6vectorIS_IN2cv6Point_IfEESaIS2_EESaIS4_EED2Ev(ptr noundef nonnull align 8 dereferenceable(24) %7) #32
  call void @llvm.lifetime.end.p0(i64 24, ptr nonnull %7) #32
  br label %common.resume
}